ccopy_reg
_reconstructor
p0
(clab2.msg._XYHVPath
XYHVPath
p1
c__builtin__
object
p2
Ntp3
Rp4
(lp5
g0
(cstd_msgs.msg._Header
Header
p6
g2
Ntp7
Rp8
(lp9
I0
ag0
(crospy.rostime
Time
p10
g2
Ntp11
Rp12
(lp13
I1556306245
aI654530048
abaS''
p14
aba(lp15
g0
(clab2.msg._XYHV
XYHV
p16
g2
Ntp17
Rp18
(lp19
F-7.668000221252441
aF-3.368000030517578
aF0.2590000033378601
aF1.0
abag0
(g16
g2
Ntp20
Rp21
(lp22
F-7.5870184898376465
aF-3.346543788909912
aF0.5382527112960815
aF1.0
abag0
(g16
g2
Ntp23
Rp24
(lp25
F-7.647106647491455
aF-3.3824198246002197
aF0.3049749433994293
aF1.0
abag0
(g16
g2
Ntp26
Rp27
(lp28
F-7.551721096038818
aF-3.3523929119110107
aF0.3049749433994293
aF1.0
abag0
(g16
g2
Ntp29
Rp30
(lp31
F-7.45633602142334
aF-3.3223659992218018
aF0.3049749433994293
aF1.0
abag0
(g16
g2
Ntp32
Rp33
(lp34
F-7.360950469970703
aF-3.2923390865325928
aF0.3049749433994293
aF1.0
abag0
(g16
g2
Ntp35
Rp36
(lp37
F-7.265564918518066
aF-3.262312173843384
aF0.3049749433994293
aF1.0
abag0
(g16
g2
Ntp38
Rp39
(lp40
F-7.17017936706543
aF-3.232285261154175
aF0.3049749433994293
aF1.0
abag0
(g16
g2
Ntp41
Rp42
(lp43
F-7.074793815612793
aF-3.202258348464966
aF0.3049749433994293
aF1.0
abag0
(g16
g2
Ntp44
Rp45
(lp46
F-6.9794087409973145
aF-3.172231435775757
aF0.3049749433994293
aF1.0
abag0
(g16
g2
Ntp47
Rp48
(lp49
F-6.884023189544678
aF-3.142204523086548
aF0.3049749433994293
aF1.0
abag0
(g16
g2
Ntp50
Rp51
(lp52
F-6.788637638092041
aF-3.112177610397339
aF0.3049749433994293
aF1.0
abag0
(g16
g2
Ntp53
Rp54
(lp55
F-6.693252086639404
aF-3.08215069770813
aF0.3049749433994293
aF1.0
abag0
(g16
g2
Ntp56
Rp57
(lp58
F-6.597867012023926
aF-3.052123785018921
aF0.3049749433994293
aF1.0
abag0
(g16
g2
Ntp59
Rp60
(lp61
F-6.502481460571289
aF-3.022096633911133
aF0.3049749433994293
aF1.0
abag0
(g16
g2
Ntp62
Rp63
(lp64
F-6.407095909118652
aF-2.992069721221924
aF0.3049749433994293
aF1.0
abag0
(g16
g2
Ntp65
Rp66
(lp67
F-6.311710357666016
aF-2.962042808532715
aF0.3049749433994293
aF1.0
abag0
(g16
g2
Ntp68
Rp69
(lp70
F-6.216324806213379
aF-2.932015895843506
aF0.3049749433994293
aF1.0
abag0
(g16
g2
Ntp71
Rp72
(lp73
F-6.1209397315979
aF-2.901988983154297
aF0.3049749433994293
aF1.0
abag0
(g16
g2
Ntp74
Rp75
(lp76
F-6.025554180145264
aF-2.871962070465088
aF0.3049749433994293
aF1.0
abag0
(g16
g2
Ntp77
Rp78
(lp79
F-5.930168628692627
aF-2.841935157775879
aF0.3049749433994293
aF1.0
abag0
(g16
g2
Ntp80
Rp81
(lp82
F-5.83478307723999
aF-2.81190824508667
aF0.3049749433994293
aF1.0
abag0
(g16
g2
Ntp83
Rp84
(lp85
F-5.7393975257873535
aF-2.781881332397461
aF0.3049749433994293
aF1.0
abag0
(g16
g2
Ntp86
Rp87
(lp88
F-5.644012451171875
aF-2.751854419708252
aF0.3049749433994293
aF1.0
abag0
(g16
g2
Ntp89
Rp90
(lp91
F-5.548626899719238
aF-2.721827507019043
aF0.3049749433994293
aF1.0
abag0
(g16
g2
Ntp92
Rp93
(lp94
F-5.453241348266602
aF-2.691800594329834
aF0.3049749433994293
aF1.0
abag0
(g16
g2
Ntp95
Rp96
(lp97
F-5.357855796813965
aF-2.661773681640625
aF0.3049749433994293
aF1.0
abag0
(g16
g2
Ntp98
Rp99
(lp100
F-5.262470722198486
aF-2.631746768951416
aF0.3049749433994293
aF1.0
abag0
(g16
g2
Ntp101
Rp102
(lp103
F-5.16708517074585
aF-2.601719856262207
aF0.3049749433994293
aF1.0
abag0
(g16
g2
Ntp104
Rp105
(lp106
F-5.071699619293213
aF-2.571692943572998
aF0.3049749433994293
aF1.0
abag0
(g16
g2
Ntp107
Rp108
(lp109
F-4.976314067840576
aF-2.541666030883789
aF0.3049749433994293
aF1.0
abag0
(g16
g2
Ntp110
Rp111
(lp112
F-4.8809285163879395
aF-2.511638879776001
aF0.3049749433994293
aF1.0
abag0
(g16
g2
Ntp113
Rp114
(lp115
F-4.785543441772461
aF-2.481611967086792
aF0.3049749433994293
aF1.0
abag0
(g16
g2
Ntp116
Rp117
(lp118
F-4.690157890319824
aF-2.451585054397583
aF0.3049749433994293
aF1.0
abag0
(g16
g2
Ntp119
Rp120
(lp121
F-4.5947723388671875
aF-2.421558141708374
aF0.3049749433994293
aF1.0
abag0
(g16
g2
Ntp122
Rp123
(lp124
F-4.499386787414551
aF-2.391531229019165
aF0.3049749433994293
aF1.0
abag0
(g16
g2
Ntp125
Rp126
(lp127
F-4.404001712799072
aF-2.361504316329956
aF0.3049749433994293
aF1.0
abag0
(g16
g2
Ntp128
Rp129
(lp130
F-4.3086161613464355
aF-2.331477403640747
aF0.3049749433994293
aF1.0
abag0
(g16
g2
Ntp131
Rp132
(lp133
F-4.213230609893799
aF-2.301450490951538
aF0.3049749433994293
aF1.0
abag0
(g16
g2
Ntp134
Rp135
(lp136
F-4.117845058441162
aF-2.271423578262329
aF0.3049749433994293
aF1.0
abag0
(g16
g2
Ntp137
Rp138
(lp139
F-4.022459506988525
aF-2.24139666557312
aF0.3049749433994293
aF1.0
abag0
(g16
g2
Ntp140
Rp141
(lp142
F-3.9270741939544678
aF-2.211369752883911
aF0.3049749433994293
aF1.0
abag0
(g16
g2
Ntp143
Rp144
(lp145
F-3.83168888092041
aF-2.181342840194702
aF0.3049749433994293
aF1.0
abag0
(g16
g2
Ntp146
Rp147
(lp148
F-3.7363033294677734
aF-2.151315927505493
aF0.3049749433994293
aF1.0
abag0
(g16
g2
Ntp149
Rp150
(lp151
F-3.640918016433716
aF-2.121289014816284
aF0.3049749433994293
aF1.0
abag0
(g16
g2
Ntp152
Rp153
(lp154
F-3.545532464981079
aF-2.091262102127075
aF0.3049749433994293
aF1.0
abag0
(g16
g2
Ntp155
Rp156
(lp157
F-3.4501469135284424
aF-2.061235189437866
aF0.3049749433994293
aF1.0
abag0
(g16
g2
Ntp158
Rp159
(lp160
F-3.3547616004943848
aF-2.0312082767486572
aF0.3049749433994293
aF1.0
abag0
(g16
g2
Ntp161
Rp162
(lp163
F-3.259376049041748
aF-2.001181125640869
aF0.3049749433994293
aF1.0
abag0
(g16
g2
Ntp164
Rp165
(lp166
F-3.1639907360076904
aF-1.9711543321609497
aF0.3049749433994293
aF1.0
abag0
(g16
g2
Ntp167
Rp168
(lp169
F-3.0686051845550537
aF-1.9411274194717407
aF0.3049749433994293
aF1.0
abag0
(g16
g2
Ntp170
Rp171
(lp172
F-2.973219871520996
aF-1.9111005067825317
aF0.3049749433994293
aF1.0
abag0
(g16
g2
Ntp173
Rp174
(lp175
F-2.8778343200683594
aF-1.8810734748840332
aF0.3049749433994293
aF1.0
abag0
(g16
g2
Ntp176
Rp177
(lp178
F-2.7824487686157227
aF-1.8510465621948242
aF0.3049749433994293
aF1.0
abag0
(g16
g2
Ntp179
Rp180
(lp181
F-2.687063455581665
aF-1.8210196495056152
aF0.3049749433994293
aF1.0
abag0
(g16
g2
Ntp182
Rp183
(lp184
F-2.5916779041290283
aF-1.7909927368164062
aF0.3049749433994293
aF1.0
abag0
(g16
g2
Ntp185
Rp186
(lp187
F-2.4962925910949707
aF-1.7609658241271973
aF0.3049749433994293
aF1.0
abag0
(g16
g2
Ntp188
Rp189
(lp190
F-2.400907039642334
aF-1.7309389114379883
aF0.3049749433994293
aF1.0
abag0
(g16
g2
Ntp191
Rp192
(lp193
F-2.3055217266082764
aF-1.7009119987487793
aF0.3049749433994293
aF1.0
abag0
(g16
g2
Ntp194
Rp195
(lp196
F-2.2101361751556396
aF-1.6708850860595703
aF0.3049749433994293
aF1.0
abag0
(g16
g2
Ntp197
Rp198
(lp199
F-2.114750623703003
aF-1.6408580541610718
aF0.3049749433994293
aF1.0
abag0
(g16
g2
Ntp200
Rp201
(lp202
F-2.0193653106689453
aF-1.6108311414718628
aF0.3049749433994293
aF1.0
abag0
(g16
g2
Ntp203
Rp204
(lp205
F-1.9239798784255981
aF-1.5808042287826538
aF0.3049749433994293
aF1.0
abag0
(g16
g2
Ntp206
Rp207
(lp208
F-1.828594446182251
aF-1.5507773160934448
aF0.3049749433994293
aF1.0
abag0
(g16
g2
Ntp209
Rp210
(lp211
F-1.8285924196243286
aF-1.550776720046997
aF0.3049749433994293
aF1.0
abag0
(g16
g2
Ntp212
Rp213
(lp214
F-1.7486824989318848
aF-1.5256214141845703
aF0.025722259655594826
aF1.0
abag0
(g16
g2
Ntp215
Rp216
(lp217
F-1.7127776145935059
aF-1.5246976613998413
aF-0.09399999678134918
aF1.0
abag0
(g16
g2
Ntp218
Rp219
(lp220
F-1.718000054359436
aF-1.5199999809265137
aF-0.09399999678134918
aF1.0
abag0
(g16
g2
Ntp221
Rp222
(lp223
F-1.6345940828323364
aF-1.5278632640838623
aF0.18525268137454987
aF1.0
abag0
(g16
g2
Ntp224
Rp225
(lp226
F-1.5522516965866089
aF-1.5124322175979614
aF0.4645053744316101
aF1.0
abag0
(g16
g2
Ntp227
Rp228
(lp229
F-1.477352499961853
aF-1.4749022722244263
aF0.7437580227851868
aF1.0
abag0
(g16
g2
Ntp230
Rp231
(lp232
F-1.4156994819641113
aF-1.4181811809539795
aF1.0230107307434082
aF1.0
abag0
(g16
g2
Ntp233
Rp234
(lp235
F-1.3720691204071045
aF-1.346663475036621
aF1.3022633790969849
aF1.0
abag0
(g16
g2
Ntp236
Rp237
(lp238
F-1.3498419523239136
aF-1.265890121459961
aF1.5815160274505615
aF1.0
abag0
(g16
g2
Ntp239
Rp240
(lp241
F-1.3503386974334717
aF-1.2195625305175781
aF1.735949993133545
aF1.0
abag0
(g16
g2
Ntp242
Rp243
(lp244
F-1.366779088973999
aF-1.1209232807159424
aF1.735949993133545
aF1.0
abag0
(g16
g2
Ntp245
Rp246
(lp247
F-1.3832194805145264
aF-1.022283911705017
aF1.735949993133545
aF1.0
abag0
(g16
g2
Ntp248
Rp249
(lp250
F-1.3996598720550537
aF-0.9236446619033813
aF1.735949993133545
aF1.0
abag0
(g16
g2
Ntp251
Rp252
(lp253
F-1.416100263595581
aF-0.8250053524971008
aF1.735949993133545
aF1.0
abag0
(g16
g2
Ntp254
Rp255
(lp256
F-1.4325406551361084
aF-0.7263660430908203
aF1.735949993133545
aF1.0
abag0
(g16
g2
Ntp257
Rp258
(lp259
F-1.4489810466766357
aF-0.6277267336845398
aF1.735949993133545
aF1.0
abag0
(g16
g2
Ntp260
Rp261
(lp262
F-1.465421438217163
aF-0.5290874242782593
aF1.735949993133545
aF1.0
abag0
(g16
g2
Ntp263
Rp264
(lp265
F-1.4818618297576904
aF-0.43044811487197876
aF1.735949993133545
aF1.0
abag0
(g16
g2
Ntp266
Rp267
(lp268
F-1.4983022212982178
aF-0.33180880546569824
aF1.735949993133545
aF1.0
abag0
(g16
g2
Ntp269
Rp270
(lp271
F-1.5147426128387451
aF-0.23316948115825653
aF1.735949993133545
aF1.0
abag0
(g16
g2
Ntp272
Rp273
(lp274
F-1.531182885169983
aF-0.134530171751976
aF1.735949993133545
aF1.0
abag0
(g16
g2
Ntp275
Rp276
(lp277
F-1.5476232767105103
aF-0.035890866070985794
aF1.735949993133545
aF1.0
abag0
(g16
g2
Ntp278
Rp279
(lp280
F-1.5640636682510376
aF0.06274844706058502
aF1.735949993133545
aF1.0
abag0
(g16
g2
Ntp281
Rp282
(lp283
F-1.580504059791565
aF0.16138775646686554
aF1.735949993133545
aF1.0
abag0
(g16
g2
Ntp284
Rp285
(lp286
F-1.5969444513320923
aF0.26002708077430725
aF1.735949993133545
aF1.0
abag0
(g16
g2
Ntp287
Rp288
(lp289
F-1.6133848428726196
aF0.35866639018058777
aF1.735949993133545
aF1.0
abag0
(g16
g2
Ntp290
Rp291
(lp292
F-1.629825234413147
aF0.4573056995868683
aF1.735949993133545
aF1.0
abag0
(g16
g2
Ntp293
Rp294
(lp295
F-1.6462656259536743
aF0.5559449791908264
aF1.735949993133545
aF1.0
abag0
(g16
g2
Ntp296
Rp297
(lp298
F-1.6627060174942017
aF0.6545842885971069
aF1.735949993133545
aF1.0
abag0
(g16
g2
Ntp299
Rp300
(lp301
F-1.679146409034729
aF0.7532235980033875
aF1.735949993133545
aF1.0
abag0
(g16
g2
Ntp302
Rp303
(lp304
F-1.6955868005752563
aF0.851862907409668
aF1.735949993133545
aF1.0
abag0
(g16
g2
Ntp305
Rp306
(lp307
F-1.7120271921157837
aF0.9505022168159485
aF1.735949993133545
aF1.0
abag0
(g16
g2
Ntp308
Rp309
(lp310
F-1.728467583656311
aF1.049141526222229
aF1.735949993133545
aF1.0
abag0
(g16
g2
Ntp311
Rp312
(lp313
F-1.7449079751968384
aF1.1477808952331543
aF1.735949993133545
aF1.0
abag0
(g16
g2
Ntp314
Rp315
(lp316
F-1.7613483667373657
aF1.24642014503479
aF1.735949993133545
aF1.0
abag0
(g16
g2
Ntp317
Rp318
(lp319
F-1.7769323587417603
aF1.339921236038208
aF1.735949993133545
aF1.0
abag0
(g16
g2
Ntp320
Rp321
(lp322
F-1.7907054424285889
aF1.4225571155548096
aF1.4566973447799683
aF1.0
abag0
(g16
g2
Ntp323
Rp324
(lp325
F-1.7811675071716309
aF1.5057882070541382
aF1.177444577217102
aF1.0
abag0
(g16
g2
Ntp326
Rp327
(lp328
F-1.7490572929382324
aF1.5831660032272339
aF0.8981919288635254
aF1.0
abag0
(g16
g2
Ntp329
Rp330
(lp331
F-1.6968629360198975
aF1.6486955881118774
aF0.6189392805099487
aF1.0
abag0
(g16
g2
Ntp332
Rp333
(lp334
F-1.6609585285186768
aF1.6742706298828125
aF0.47200000286102295
aF0.0
abaab.
